target datalayout = "e-m:e-p270:32:32-p271:32:32-p272:64:64-i64:64-i128:128-f80:128-n8:16:32:64-S128"
target triple = "x86_64-pc-linux-gnu"

%struct.IDAMemRec = type { double, ptr, ptr, i32, double, double, ptr, i32, ptr, ptr, i32, ptr, ptr, i32, i32, double, double, ptr, i32, i32, i32, ptr, ptr, i32, ptr, ptr, ptr, i32, double, i32, i32, double, ptr, ptr, i32, ptr, ptr, i32, i32, i32, double, ptr, ptr, [6 x ptr], [6 x double], [6 x double], [6 x double], [6 x double], [6 x double], ptr, ptr, ptr, ptr, ptr, ptr, ptr, ptr, ptr, ptr, ptr, ptr, ptr, ptr, ptr, [6 x ptr], ptr, ptr, ptr, ptr, [6 x ptr], ptr, ptr, ptr, ptr, ptr, ptr, ptr, ptr, ptr, ptr, ptr, ptr, ptr, ptr, [6 x ptr], ptr, ptr, ptr, ptr, ptr, double, ptr, ptr, i32, i32, i32, i32, i32, i32, i32, double, double, double, i32, double, i32, i32, i32, i32, double, double, double, double, double, double, double, double, double, double, double, double, double, double, i32, i32, i32, i32, i32, i64, double, i32, i64, i64, i64, i64, i64, i64, i64, i64, i64, i64, i64, i64, i64, i64, i64, i64, i64, i64, i64, i64, i64, i64, i64, i64, ptr, ptr, ptr, i32, i32, i32, i32, i32, i32, i32, i32, i32, i32, i32, i32, i32, ptr, ptr, ptr, ptr, ptr, ptr, i32, i32, i32, i32, i32, i32, double, double, double, ptr, i32, ptr, ptr, double, double, double, ptr, ptr, ptr, double, double, i32, i32, i64, ptr, i32, i32, ptr, i32 }
%struct.IDASpilsMemRec = type { i32, i32, double, i32, i32, double, double, double, i64, i64, i64, i64, i64, i64, i64, i64, i64, i64, i64, i64, ptr, ptr, ptr, ptr, ptr, ptr, ptr, i64, ptr, ptr, ptr, ptr, i32, ptr, ptr }
%struct._SpgmrMemRec = type { i32, ptr, ptr, ptr, ptr, ptr, ptr }

@.str = private unnamed_addr constant [9 x i8] c"IDASPGMR\00", align 1
@.str.11 = private unnamed_addr constant [14 x i8] c"IDASpgmrSolve\00", align 1
@.str.12 = private unnamed_addr constant [65 x i8] c"The Jacobian x vector routine failed in an unrecoverable manner.\00", align 1
@.str.13 = private unnamed_addr constant [68 x i8] c"The preconditioner solve routine failed in an unrecoverable manner.\00", align 1

; Function Attrs: nounwind uwtable
define internal i32 @IDASpgmrSolve(ptr noundef %0, ptr noundef %1, ptr noundef %2, ptr noundef %3, ptr noundef %4, ptr noundef %5) #0 {
  %7 = alloca i32, align 4
  %8 = alloca ptr, align 8
  %9 = alloca ptr, align 8
  %10 = alloca ptr, align 8
  %11 = alloca ptr, align 8
  %12 = alloca ptr, align 8
  %13 = alloca ptr, align 8
  %14 = alloca ptr, align 8
  %15 = alloca ptr, align 8
  %16 = alloca i32, align 4
  %17 = alloca i32, align 4
  %18 = alloca i32, align 4
  %19 = alloca i32, align 4
  %20 = alloca double, align 8
  %21 = alloca i32, align 4
  store ptr %0, ptr %8, align 8, !tbaa !9
  store ptr %1, ptr %9, align 8, !tbaa !64
  store ptr %2, ptr %10, align 8, !tbaa !64
  store ptr %3, ptr %11, align 8, !tbaa !64
  store ptr %4, ptr %12, align 8, !tbaa !64
  store ptr %5, ptr %13, align 8, !tbaa !64
  call void @llvm.lifetime.start.p0(i64 8, ptr %14) #5
  call void @llvm.lifetime.start.p0(i64 8, ptr %15) #5
  call void @llvm.lifetime.start.p0(i64 4, ptr %16) #5
  call void @llvm.lifetime.start.p0(i64 4, ptr %17) #5
  call void @llvm.lifetime.start.p0(i64 4, ptr %18) #5
  call void @llvm.lifetime.start.p0(i64 4, ptr %19) #5
  call void @llvm.lifetime.start.p0(i64 8, ptr %20) #5
  %22 = load ptr, ptr %8, align 8, !tbaa !9
  %23 = getelementptr inbounds nuw %struct.IDAMemRec, ptr %22, i32 0, i32 176
  %24 = load ptr, ptr %23, align 8, !tbaa !57
  store ptr %24, ptr %14, align 8, !tbaa !31
  %25 = load ptr, ptr %14, align 8, !tbaa !31
  %26 = getelementptr inbounds nuw %struct.IDASpilsMemRec, ptr %25, i32 0, i32 26
  %27 = load ptr, ptr %26, align 8, !tbaa !56
  store ptr %27, ptr %15, align 8, !tbaa !54
  %28 = load ptr, ptr %14, align 8, !tbaa !31
  %29 = getelementptr inbounds nuw %struct.IDASpilsMemRec, ptr %28, i32 0, i32 2
  %30 = load double, ptr %29, align 8, !tbaa !53
  %31 = load ptr, ptr %14, align 8, !tbaa !31
  %32 = getelementptr inbounds nuw %struct.IDASpilsMemRec, ptr %31, i32 0, i32 5
  %33 = load double, ptr %32, align 8, !tbaa !46
  %34 = fmul double %30, %33
  %35 = load ptr, ptr %8, align 8, !tbaa !9
  %36 = getelementptr inbounds nuw %struct.IDAMemRec, ptr %35, i32 0, i32 119
  %37 = load double, ptr %36, align 8, !tbaa !67
  %38 = fmul double %34, %37
  %39 = load ptr, ptr %14, align 8, !tbaa !31
  %40 = getelementptr inbounds nuw %struct.IDASpilsMemRec, ptr %39, i32 0, i32 7
  store double %38, ptr %40, align 8, !tbaa !68
  %41 = load ptr, ptr %11, align 8, !tbaa !64
  %42 = load ptr, ptr %14, align 8, !tbaa !31
  %43 = getelementptr inbounds nuw %struct.IDASpilsMemRec, ptr %42, i32 0, i32 23
  store ptr %41, ptr %43, align 8, !tbaa !69
  %44 = load ptr, ptr %12, align 8, !tbaa !64
  %45 = load ptr, ptr %14, align 8, !tbaa !31
  %46 = getelementptr inbounds nuw %struct.IDASpilsMemRec, ptr %45, i32 0, i32 24
  store ptr %44, ptr %46, align 8, !tbaa !70
  %47 = load ptr, ptr %13, align 8, !tbaa !64
  %48 = load ptr, ptr %14, align 8, !tbaa !31
  %49 = getelementptr inbounds nuw %struct.IDASpilsMemRec, ptr %48, i32 0, i32 25
  store ptr %47, ptr %49, align 8, !tbaa !71
  %50 = load ptr, ptr %14, align 8, !tbaa !31
  %51 = getelementptr inbounds nuw %struct.IDASpilsMemRec, ptr %50, i32 0, i32 29
  %52 = load ptr, ptr %51, align 8, !tbaa !40
  %53 = icmp eq ptr %52, null
  %54 = select i1 %53, i32 0, i32 1
  store i32 %54, ptr %16, align 4, !tbaa !7
  %55 = load ptr, ptr %14, align 8, !tbaa !31
  %56 = getelementptr inbounds nuw %struct.IDASpilsMemRec, ptr %55, i32 0, i32 22
  %57 = load ptr, ptr %56, align 8, !tbaa !52
  call void @N_VConst(double noundef 0.000000e+00, ptr noundef %57)
  %58 = load ptr, ptr %15, align 8, !tbaa !54
  %59 = load ptr, ptr %8, align 8, !tbaa !9
  %60 = load ptr, ptr %14, align 8, !tbaa !31
  %61 = getelementptr inbounds nuw %struct.IDASpilsMemRec, ptr %60, i32 0, i32 22
  %62 = load ptr, ptr %61, align 8, !tbaa !52
  %63 = load ptr, ptr %9, align 8, !tbaa !64
  %64 = load i32, ptr %16, align 4, !tbaa !7
  %65 = load ptr, ptr %14, align 8, !tbaa !31
  %66 = getelementptr inbounds nuw %struct.IDASpilsMemRec, ptr %65, i32 0, i32 1
  %67 = load i32, ptr %66, align 4, !tbaa !44
  %68 = load ptr, ptr %14, align 8, !tbaa !31
  %69 = getelementptr inbounds nuw %struct.IDASpilsMemRec, ptr %68, i32 0, i32 7
  %70 = load double, ptr %69, align 8, !tbaa !68
  %71 = load ptr, ptr %14, align 8, !tbaa !31
  %72 = getelementptr inbounds nuw %struct.IDASpilsMemRec, ptr %71, i32 0, i32 4
  %73 = load i32, ptr %72, align 4, !tbaa !45
  %74 = load ptr, ptr %8, align 8, !tbaa !9
  %75 = load ptr, ptr %10, align 8, !tbaa !64
  %76 = load ptr, ptr %10, align 8, !tbaa !64
  %77 = call i32 @SpgmrSolve(ptr noundef %58, ptr noundef %59, ptr noundef %62, ptr noundef %63, i32 noundef %64, i32 noundef %67, double noundef %70, i32 noundef %73, ptr noundef %74, ptr noundef %75, ptr noundef %76, ptr noundef @IDASpilsAtimes, ptr noundef @IDASpilsPSolve, ptr noundef %20, ptr noundef %17, ptr noundef %18)
  store i32 %77, ptr %19, align 4, !tbaa !7
  %78 = load i32, ptr %17, align 4, !tbaa !7
  %79 = icmp eq i32 %78, 0
  br i1 %79, label %80, label %85

80:                                               ; preds = %6
  %81 = load ptr, ptr %15, align 8, !tbaa !54
  %82 = getelementptr inbounds nuw %struct._SpgmrMemRec, ptr %81, i32 0, i32 6
  %83 = load ptr, ptr %82, align 8, !tbaa !72
  %84 = load ptr, ptr %9, align 8, !tbaa !64
  call void @N_VScale(double noundef 1.000000e+00, ptr noundef %83, ptr noundef %84)
  br label %90

85:                                               ; preds = %6
  %86 = load ptr, ptr %14, align 8, !tbaa !31
  %87 = getelementptr inbounds nuw %struct.IDASpilsMemRec, ptr %86, i32 0, i32 22
  %88 = load ptr, ptr %87, align 8, !tbaa !52
  %89 = load ptr, ptr %9, align 8, !tbaa !64
  call void @N_VScale(double noundef 1.000000e+00, ptr noundef %88, ptr noundef %89)
  br label %90

90:                                               ; preds = %85, %80
  %91 = load i32, ptr %17, align 4, !tbaa !7
  %92 = sext i32 %91 to i64
  %93 = load ptr, ptr %14, align 8, !tbaa !31
  %94 = getelementptr inbounds nuw %struct.IDASpilsMemRec, ptr %93, i32 0, i32 9
  %95 = load i64, ptr %94, align 8, !tbaa !60
  %96 = add nsw i64 %95, %92
  store i64 %96, ptr %94, align 8, !tbaa !60
  %97 = load i32, ptr %18, align 4, !tbaa !7
  %98 = sext i32 %97 to i64
  %99 = load ptr, ptr %14, align 8, !tbaa !31
  %100 = getelementptr inbounds nuw %struct.IDASpilsMemRec, ptr %99, i32 0, i32 10
  %101 = load i64, ptr %100, align 8, !tbaa !59
  %102 = add nsw i64 %101, %98
  store i64 %102, ptr %100, align 8, !tbaa !59
  %103 = load i32, ptr %19, align 4, !tbaa !7
  %104 = icmp ne i32 %103, 0
  br i1 %104, label %105, label %110

105:                                              ; preds = %90
  %106 = load ptr, ptr %14, align 8, !tbaa !31
  %107 = getelementptr inbounds nuw %struct.IDASpilsMemRec, ptr %106, i32 0, i32 11
  %108 = load i64, ptr %107, align 8, !tbaa !58
  %109 = add nsw i64 %108, 1
  store i64 %109, ptr %107, align 8, !tbaa !58
  br label %110

110:                                              ; preds = %105, %90
  %111 = load i32, ptr %19, align 4, !tbaa !7
  %112 = sext i32 %111 to i64
  %113 = load ptr, ptr %14, align 8, !tbaa !31
  %114 = getelementptr inbounds nuw %struct.IDASpilsMemRec, ptr %113, i32 0, i32 27
  store i64 %112, ptr %114, align 8, !tbaa !48
  %115 = load i32, ptr %19, align 4, !tbaa !7
  switch i32 %115, label %129 [
    i32 0, label %116
    i32 1, label %117
    i32 2, label %118
    i32 3, label %119
    i32 4, label %120
    i32 5, label %121
    i32 -1, label %122
    i32 -2, label %123
    i32 -3, label %125
    i32 -4, label %127
    i32 -5, label %128
  ]

116:                                              ; preds = %110
  store i32 0, ptr %7, align 4
  store i32 1, ptr %21, align 4
  br label %130

117:                                              ; preds = %110
  store i32 1, ptr %7, align 4
  store i32 1, ptr %21, align 4
  br label %130

118:                                              ; preds = %110
  store i32 1, ptr %7, align 4
  store i32 1, ptr %21, align 4
  br label %130

119:                                              ; preds = %110
  store i32 1, ptr %7, align 4
  store i32 1, ptr %21, align 4
  br label %130

120:                                              ; preds = %110
  store i32 1, ptr %7, align 4
  store i32 1, ptr %21, align 4
  br label %130

121:                                              ; preds = %110
  store i32 1, ptr %7, align 4
  store i32 1, ptr %21, align 4
  br label %130

122:                                              ; preds = %110
  store i32 -1, ptr %7, align 4
  store i32 1, ptr %21, align 4
  br label %130

123:                                              ; preds = %110
  %124 = load ptr, ptr %8, align 8, !tbaa !9
  call void (ptr, i32, ptr, ptr, ptr, ...) @IDAProcessError(ptr noundef %124, i32 noundef -2, ptr noundef @.str, ptr noundef @.str.11, ptr noundef @.str.12)
  store i32 -1, ptr %7, align 4
  store i32 1, ptr %21, align 4
  br label %130

125:                                              ; preds = %110
  %126 = load ptr, ptr %8, align 8, !tbaa !9
  call void (ptr, i32, ptr, ptr, ptr, ...) @IDAProcessError(ptr noundef %126, i32 noundef -3, ptr noundef @.str, ptr noundef @.str.11, ptr noundef @.str.13)
  store i32 -1, ptr %7, align 4
  store i32 1, ptr %21, align 4
  br label %130

127:                                              ; preds = %110
  store i32 -1, ptr %7, align 4
  store i32 1, ptr %21, align 4
  br label %130

128:                                              ; preds = %110
  store i32 -1, ptr %7, align 4
  store i32 1, ptr %21, align 4
  br label %130

129:                                              ; preds = %110
  store i32 0, ptr %7, align 4
  store i32 1, ptr %21, align 4
  br label %130

130:                                              ; preds = %129, %128, %127, %125, %123, %122, %121, %120, %119, %118, %117, %116
  call void @llvm.lifetime.end.p0(i64 8, ptr %20) #5
  call void @llvm.lifetime.end.p0(i64 4, ptr %19) #5
  call void @llvm.lifetime.end.p0(i64 4, ptr %18) #5
  call void @llvm.lifetime.end.p0(i64 4, ptr %17) #5
  call void @llvm.lifetime.end.p0(i64 4, ptr %16) #5
  call void @llvm.lifetime.end.p0(i64 8, ptr %15) #5
  call void @llvm.lifetime.end.p0(i64 8, ptr %14) #5
  %131 = load i32, ptr %7, align 4
  ret i32 %131
}