; Function Attrs: nounwind uwtable
define internal range(i32 -1, 2) i32 @IDASpgmrSolve(ptr noundef %0, ptr noundef %1, ptr noundef %2, ptr noundef %3, ptr noundef %4, ptr noundef %5) #0 {
  %7 = alloca i32, align 4
  %8 = alloca i32, align 4
  %9 = alloca double, align 8
  call void @llvm.lifetime.start.p0(i64 4, ptr nonnull %7) #8
  call void @llvm.lifetime.start.p0(i64 4, ptr nonnull %8) #8
  call void @llvm.lifetime.start.p0(i64 8, ptr nonnull %9) #8
  %10 = getelementptr inbounds nuw i8, ptr %0, i64 1632
  %11 = load ptr, ptr %10, align 8, !tbaa !44
  %12 = getelementptr inbounds nuw i8, ptr %11, i64 192
  %13 = load ptr, ptr %12, align 8, !tbaa !43
  %14 = getelementptr inbounds nuw i8, ptr %11, i64 8
  %15 = load double, ptr %14, align 8, !tbaa !42
  %16 = getelementptr inbounds nuw i8, ptr %11, i64 24
  %17 = load double, ptr %16, align 8, !tbaa !35
  %18 = fmul double %15, %17
  %19 = getelementptr inbounds nuw i8, ptr %0, i64 1240
  %20 = load double, ptr %19, align 8, !tbaa !52
  %21 = fmul double %18, %20
  %22 = getelementptr inbounds nuw i8, ptr %11, i64 40
  store double %21, ptr %22, align 8, !tbaa !53
  %23 = getelementptr inbounds nuw i8, ptr %11, i64 168
  store ptr %3, ptr %23, align 8, !tbaa !54
  %24 = getelementptr inbounds nuw i8, ptr %11, i64 176
  store ptr %4, ptr %24, align 8, !tbaa !55
  %25 = getelementptr inbounds nuw i8, ptr %11, i64 184
  store ptr %5, ptr %25, align 8, !tbaa !56
  %26 = getelementptr inbounds nuw i8, ptr %11, i64 216
  %27 = load ptr, ptr %26, align 8, !tbaa !45
  %28 = icmp ne ptr %27, null
  %29 = zext i1 %28 to i32
  %30 = getelementptr inbounds nuw i8, ptr %11, i64 160
  %31 = load ptr, ptr %30, align 8, !tbaa !41
  tail call void @N_VConst(double noundef 0.000000e+00, ptr noundef %31) #8
  %32 = load ptr, ptr %30, align 8, !tbaa !41
  %33 = getelementptr inbounds nuw i8, ptr %11, i64 4
  %34 = load i32, ptr %33, align 4, !tbaa !33
  %35 = load double, ptr %22, align 8, !tbaa !53
  %36 = getelementptr inbounds nuw i8, ptr %11, i64 20
  %37 = load i32, ptr %36, align 4, !tbaa !34
  %38 = call i32 @SpgmrSolve(ptr noundef %13, ptr noundef %0, ptr noundef %32, ptr noundef %1, i32 noundef %29, i32 noundef %34, double noundef %35, i32 noundef %37, ptr noundef %0, ptr noundef %2, ptr noundef %2, ptr noundef nonnull @IDASpilsAtimes, ptr noundef nonnull @IDASpilsPSolve, ptr noundef nonnull %9, ptr noundef nonnull %7, ptr noundef nonnull %8) #8
  %39 = load i32, ptr %7, align 4, !tbaa !57
  %40 = icmp eq i32 %39, 0
  %41 = getelementptr inbounds nuw i8, ptr %13, i64 48
  %.sink.in = select i1 %40, ptr %41, ptr %30
  %.sink = load ptr, ptr %.sink.in, align 8, !tbaa !58
  call void @N_VScale(double noundef 1.000000e+00, ptr noundef %.sink, ptr noundef %1) #8
  %42 = load i32, ptr %7, align 4, !tbaa !57
  %43 = sext i32 %42 to i64
  %44 = getelementptr inbounds nuw i8, ptr %11, i64 56
  %45 = load i64, ptr %44, align 8, !tbaa !59
  %46 = add nsw i64 %45, %43
  store i64 %46, ptr %44, align 8, !tbaa !59
  %47 = load i32, ptr %8, align 4, !tbaa !57
  %48 = sext i32 %47 to i64
  %49 = getelementptr inbounds nuw i8, ptr %11, i64 64
  %50 = load i64, ptr %49, align 8, !tbaa !60
  %51 = add nsw i64 %50, %48
  store i64 %51, ptr %49, align 8, !tbaa !60
  %.not = icmp eq i32 %38, 0
  br i1 %.not, label %.thread, label %53

.thread:                                          ; preds = %6
  %52 = getelementptr inbounds nuw i8, ptr %11, i64 200
  store i64 0, ptr %52, align 8, !tbaa !37
  br label %62

53:                                               ; preds = %6
  %54 = getelementptr inbounds nuw i8, ptr %11, i64 72
  %55 = load i64, ptr %54, align 8, !tbaa !61
  %56 = add nsw i64 %55, 1
  store i64 %56, ptr %54, align 8, !tbaa !61
  %57 = sext i32 %38 to i64
  %58 = getelementptr inbounds nuw i8, ptr %11, i64 200
  store i64 %57, ptr %58, align 8, !tbaa !37
  switch i32 %38, label %62 [
    i32 -5, label %59
    i32 1, label %63
    i32 2, label %63
    i32 3, label %63
    i32 4, label %63
    i32 5, label %63
    i32 -1, label %59
    i32 -2, label %60
    i32 -3, label %61
    i32 -4, label %59
  ]

59:                                               ; preds = %53, %53, %53
  br label %63

60:                                               ; preds = %53
  call void (ptr, i32, ptr, ptr, ptr, ...) @IDAProcessError(ptr noundef nonnull %0, i32 noundef -2, ptr noundef nonnull @.str, ptr noundef nonnull @.str.11, ptr noundef nonnull @.str.12) #8
  br label %63

61:                                               ; preds = %53
  call void (ptr, i32, ptr, ptr, ptr, ...) @IDAProcessError(ptr noundef nonnull %0, i32 noundef -3, ptr noundef nonnull @.str, ptr noundef nonnull @.str.11, ptr noundef nonnull @.str.13) #8
  br label %63

62:                                               ; preds = %.thread, %53
  br label %63

63:                                               ; preds = %53, %53, %53, %53, %53, %62, %61, %60, %59
  %.0 = phi i32 [ 0, %62 ], [ -1, %61 ], [ -1, %60 ], [ -1, %59 ], [ 1, %53 ], [ 1, %53 ], [ 1, %53 ], [ 1, %53 ], [ 1, %53 ]
  call void @llvm.lifetime.end.p0(i64 8, ptr nonnull %9) #8
  call void @llvm.lifetime.end.p0(i64 4, ptr nonnull %8) #8
  call void @llvm.lifetime.end.p0(i64 4, ptr nonnull %7) #8
  ret i32 %.0
}